target datalayout = "e-m:e-p270:32:32-p271:32:32-p272:64:64-i64:64-i128:128-f80:128-n8:16:32:64-S128"
target triple = "x86_64-pc-linux-gnu"

%struct.v4l2_fract = type { i32, i32 }
%struct.v4l2_frmivalenum = type { i32, i32, i32, i32, i32, %union.anon.0, [2 x i32] }
%union.anon.0 = type { %struct.v4l2_frmival_stepwise }
%struct.v4l2_frmival_stepwise = type { %struct.v4l2_fract, %struct.v4l2_fract, %struct.v4l2_fract }

; Function Attrs: nounwind uwtable
define internal zeroext i1 @AddCameraFormat(i32 noundef %0, ptr noundef %1, i32 noundef %2, i32 noundef %3, i32 noundef %4, i32 noundef %5, i32 noundef %6) #0 {
  %8 = alloca i1, align 1
  %9 = alloca i32, align 4
  %10 = alloca ptr, align 8
  %11 = alloca i32, align 4
  %12 = alloca i32, align 4
  %13 = alloca i32, align 4
  %14 = alloca i32, align 4
  %15 = alloca i32, align 4
  %16 = alloca %struct.v4l2_frmivalenum, align 4
  %17 = alloca i32, align 4
  %18 = alloca i32, align 4
  %19 = alloca i32, align 4
  %20 = alloca i32, align 4
  %21 = alloca i32, align 4
  store i32 %0, ptr %9, align 4
  store ptr %1, ptr %10, align 8
  store i32 %2, ptr %11, align 4
  store i32 %3, ptr %12, align 4
  store i32 %4, ptr %13, align 4
  store i32 %5, ptr %14, align 4
  store i32 %6, ptr %15, align 4
  call void @llvm.lifetime.start.p0(i64 52, ptr %16) #8
  call void @llvm.memset.p0.i64(ptr align 4 %16, i8 0, i64 52, i1 false)
  %22 = load i32, ptr %13, align 4
  %23 = getelementptr inbounds nuw %struct.v4l2_frmivalenum, ptr %16, i32 0, i32 1
  store i32 %22, ptr %23, align 4
  %24 = load i32, ptr %14, align 4
  %25 = getelementptr inbounds nuw %struct.v4l2_frmivalenum, ptr %16, i32 0, i32 2
  store i32 %24, ptr %25, align 4
  %26 = load i32, ptr %15, align 4
  %27 = getelementptr inbounds nuw %struct.v4l2_frmivalenum, ptr %16, i32 0, i32 3
  store i32 %26, ptr %27, align 4
  br label %28

28:                                               ; preds = %114, %7
  %29 = load i32, ptr %9, align 4
  %30 = call i32 (i32, i64, ...) @ioctl(i32 noundef %29, i64 noundef 3224655435, ptr noundef %16) #8
  %31 = icmp eq i32 %30, 0
  br i1 %31, label %32, label %115

32:                                               ; preds = %28
  %33 = getelementptr inbounds nuw %struct.v4l2_frmivalenum, ptr %16, i32 0, i32 4
  %34 = load i32, ptr %33, align 4
  %35 = icmp eq i32 %34, 1
  br i1 %35, label %36, label %59

36:                                               ; preds = %32
  call void @llvm.lifetime.start.p0(i64 4, ptr %17) #8
  %37 = getelementptr inbounds nuw %struct.v4l2_frmivalenum, ptr %16, i32 0, i32 5
  %38 = getelementptr inbounds nuw %struct.v4l2_fract, ptr %37, i32 0, i32 0
  %39 = load i32, ptr %38, align 4
  store i32 %39, ptr %17, align 4
  call void @llvm.lifetime.start.p0(i64 4, ptr %18) #8
  %40 = getelementptr inbounds nuw %struct.v4l2_frmivalenum, ptr %16, i32 0, i32 5
  %41 = getelementptr inbounds nuw %struct.v4l2_fract, ptr %40, i32 0, i32 1
  %42 = load i32, ptr %41, align 4
  store i32 %42, ptr %18, align 4
  %43 = load ptr, ptr %10, align 8
  %44 = load i32, ptr %11, align 4
  %45 = load i32, ptr %12, align 4
  %46 = load i32, ptr %14, align 4
  %47 = load i32, ptr %15, align 4
  %48 = load i32, ptr %18, align 4
  %49 = load i32, ptr %17, align 4
  %50 = call zeroext i1 @SDL_AddCameraFormat(ptr noundef %43, i32 noundef %44, i32 noundef %45, i32 noundef %46, i32 noundef %47, i32 noundef %48, i32 noundef %49)
  br i1 %50, label %52, label %51

51:                                               ; preds = %36
  store i1 false, ptr %8, align 1
  store i32 1, ptr %19, align 4
  br label %56

52:                                               ; preds = %36
  %53 = getelementptr inbounds nuw %struct.v4l2_frmivalenum, ptr %16, i32 0, i32 0
  %54 = load i32, ptr %53, align 4
  %55 = add i32 %54, 1
  store i32 %55, ptr %53, align 4
  store i32 0, ptr %19, align 4
  br label %56

56:                                               ; preds = %52, %51
  call void @llvm.lifetime.end.p0(i64 4, ptr %18) #8
  call void @llvm.lifetime.end.p0(i64 4, ptr %17) #8
  %57 = load i32, ptr %19, align 4
  switch i32 %57, label %116 [
    i32 0, label %58
  ]

58:                                               ; preds = %56
  br label %114

59:                                               ; preds = %32
  %60 = getelementptr inbounds nuw %struct.v4l2_frmivalenum, ptr %16, i32 0, i32 4
  %61 = load i32, ptr %60, align 4
  %62 = icmp eq i32 %61, 3
  br i1 %62, label %67, label %63

63:                                               ; preds = %59
  %64 = getelementptr inbounds nuw %struct.v4l2_frmivalenum, ptr %16, i32 0, i32 4
  %65 = load i32, ptr %64, align 4
  %66 = icmp eq i32 %65, 2
  br i1 %66, label %67, label %113

67:                                               ; preds = %63, %59
  call void @llvm.lifetime.start.p0(i64 4, ptr %20) #8
  %68 = getelementptr inbounds nuw %struct.v4l2_frmivalenum, ptr %16, i32 0, i32 5
  %69 = getelementptr inbounds nuw %struct.v4l2_frmival_stepwise, ptr %68, i32 0, i32 0
  %70 = getelementptr inbounds nuw %struct.v4l2_fract, ptr %69, i32 0, i32 1
  %71 = load i32, ptr %70, align 4
  store i32 %71, ptr %20, align 4
  call void @llvm.lifetime.start.p0(i64 4, ptr %21) #8
  %72 = getelementptr inbounds nuw %struct.v4l2_frmivalenum, ptr %16, i32 0, i32 5
  %73 = getelementptr inbounds nuw %struct.v4l2_frmival_stepwise, ptr %72, i32 0, i32 0
  %74 = getelementptr inbounds nuw %struct.v4l2_fract, ptr %73, i32 0, i32 0
  %75 = load i32, ptr %74, align 4
  store i32 %75, ptr %21, align 4
  br label %76

76:                                               ; preds = %101, %67
  %77 = load i32, ptr %21, align 4
  %78 = getelementptr inbounds nuw %struct.v4l2_frmivalenum, ptr %16, i32 0, i32 5
  %79 = getelementptr inbounds nuw %struct.v4l2_frmival_stepwise, ptr %78, i32 0, i32 1
  %80 = getelementptr inbounds nuw %struct.v4l2_fract, ptr %79, i32 0, i32 0
  %81 = load i32, ptr %80, align 4
  %82 = icmp sle i32 %77, %81
  br i1 %82, label %84, label %83

83:                                               ; preds = %76
  store i32 4, ptr %19, align 4
  br label %108

84:                                               ; preds = %76
  %85 = load ptr, ptr %10, align 8
  %86 = load i32, ptr %11, align 4
  %87 = load i32, ptr %12, align 4
  %88 = load i32, ptr %14, align 4
  %89 = load i32, ptr %15, align 4
  %90 = load i32, ptr %20, align 4
  %91 = load i32, ptr %21, align 4
  %92 = call zeroext i1 @SDL_AddCameraFormat(ptr noundef %85, i32 noundef %86, i32 noundef %87, i32 noundef %88, i32 noundef %89, i32 noundef %90, i32 noundef %91)
  br i1 %92, label %94, label %93

93:                                               ; preds = %84
  store i1 false, ptr %8, align 1
  store i32 1, ptr %19, align 4
  br label %108

94:                                               ; preds = %84
  %95 = getelementptr inbounds nuw %struct.v4l2_frmivalenum, ptr %16, i32 0, i32 5
  %96 = getelementptr inbounds nuw %struct.v4l2_frmival_stepwise, ptr %95, i32 0, i32 2
  %97 = getelementptr inbounds nuw %struct.v4l2_fract, ptr %96, i32 0, i32 1
  %98 = load i32, ptr %97, align 4
  %99 = load i32, ptr %20, align 4
  %100 = add nsw i32 %99, %98
  store i32 %100, ptr %20, align 4
  br label %101

101:                                              ; preds = %94
  %102 = getelementptr inbounds nuw %struct.v4l2_frmivalenum, ptr %16, i32 0, i32 5
  %103 = getelementptr inbounds nuw %struct.v4l2_frmival_stepwise, ptr %102, i32 0, i32 2
  %104 = getelementptr inbounds nuw %struct.v4l2_fract, ptr %103, i32 0, i32 0
  %105 = load i32, ptr %104, align 4
  %106 = load i32, ptr %21, align 4
  %107 = add nsw i32 %106, %105
  store i32 %107, ptr %21, align 4
  br label %76, !llvm.loop !17

108:                                              ; preds = %93, %83
  call void @llvm.lifetime.end.p0(i64 4, ptr %21) #8
  %109 = load i32, ptr %19, align 4
  switch i32 %109, label %111 [
    i32 4, label %110
  ]

110:                                              ; preds = %108
  store i32 3, ptr %19, align 4
  br label %111

111:                                              ; preds = %110, %108
  call void @llvm.lifetime.end.p0(i64 4, ptr %20) #8
  %112 = load i32, ptr %19, align 4
  switch i32 %112, label %116 [
    i32 3, label %115
  ]

113:                                              ; preds = %63
  br label %114

114:                                              ; preds = %113, %58
  br label %28, !llvm.loop !18

115:                                              ; preds = %111, %28
  store i1 true, ptr %8, align 1
  store i32 1, ptr %19, align 4
  br label %116

116:                                              ; preds = %115, %111, %56
  call void @llvm.lifetime.end.p0(i64 52, ptr %16) #8
  %117 = load i1, ptr %8, align 1
  ret i1 %117
}