; Function Attrs: nounwind uwtable
define internal fastcc noundef zeroext i1 @AddCameraFormat(i32 noundef range(i32 0, -1) %0, ptr noundef nonnull %1, i32 noundef %2, i32 noundef %3, i32 noundef %4, i32 noundef %5, i32 noundef %6) unnamed_addr #1 {
  %8 = alloca %struct.v4l2_frmivalenum, align 4
  call void @llvm.lifetime.start.p0(i64 52, ptr nonnull %8) #11
  call void @llvm.memset.p0.i64(ptr noundef nonnull align 4 dereferenceable(52) %8, i8 0, i64 52, i1 false)
  %9 = getelementptr inbounds nuw i8, ptr %8, i64 4
  store i32 %4, ptr %9, align 4
  %10 = getelementptr inbounds nuw i8, ptr %8, i64 8
  store i32 %5, ptr %10, align 4
  %11 = getelementptr inbounds nuw i8, ptr %8, i64 12
  store i32 %6, ptr %11, align 4
  %12 = call i32 (i32, i64, ...) @ioctl(i32 noundef %0, i64 noundef 3224655435, ptr noundef nonnull %8) #11
  %13 = icmp eq i32 %12, 0
  br i1 %13, label %.lr.ph, label %.critedge

.lr.ph:                                           ; preds = %7
  %14 = getelementptr inbounds nuw i8, ptr %8, i64 16
  %15 = getelementptr inbounds nuw i8, ptr %8, i64 20
  %16 = getelementptr inbounds nuw i8, ptr %8, i64 24
  br label %17

17:                                               ; preds = %.lr.ph, %44
  %18 = load i32, ptr %14, align 4
  %19 = icmp eq i32 %18, 1
  br i1 %19, label %20, label %27

20:                                               ; preds = %17
  %21 = load i32, ptr %15, align 4
  %22 = load i32, ptr %16, align 4
  %23 = call zeroext i1 @SDL_AddCameraFormat(ptr noundef nonnull %1, i32 noundef %2, i32 noundef %3, i32 noundef %5, i32 noundef %6, i32 noundef %22, i32 noundef %21) #11
  br i1 %23, label %24, label %.critedge

24:                                               ; preds = %20
  %25 = load i32, ptr %8, align 4
  %26 = add i32 %25, 1
  store i32 %26, ptr %8, align 4
  br label %44

27:                                               ; preds = %17
  %28 = and i32 %18, -2
  %or.cond = icmp eq i32 %28, 2
  br i1 %or.cond, label %29, label %44

29:                                               ; preds = %27
  %30 = load i32, ptr %15, align 4
  %31 = getelementptr inbounds nuw i8, ptr %8, i64 28
  %32 = load i32, ptr %31, align 4
  %.not39 = icmp sgt i32 %30, %32
  br i1 %.not39, label %.critedge, label %.lr.ph42

.lr.ph42:                                         ; preds = %29
  %33 = load i32, ptr %16, align 4
  %34 = getelementptr inbounds nuw i8, ptr %8, i64 36
  %35 = getelementptr inbounds nuw i8, ptr %8, i64 40
  br label %36

36:                                               ; preds = %.lr.ph42, %38
  %.041 = phi i32 [ %30, %.lr.ph42 ], [ %42, %38 ]
  %.02840 = phi i32 [ %33, %.lr.ph42 ], [ %40, %38 ]
  %37 = call zeroext i1 @SDL_AddCameraFormat(ptr noundef nonnull %1, i32 noundef %2, i32 noundef %3, i32 noundef %5, i32 noundef %6, i32 noundef %.02840, i32 noundef %.041) #11
  br i1 %37, label %38, label %.critedge

38:                                               ; preds = %36
  %39 = load i32, ptr %35, align 4
  %40 = add nsw i32 %39, %.02840
  %41 = load i32, ptr %34, align 4
  %42 = add nsw i32 %41, %.041
  %43 = load i32, ptr %31, align 4
  %.not = icmp sgt i32 %42, %43
  br i1 %.not, label %.critedge, label %36, !llvm.loop !15

44:                                               ; preds = %24, %27
  %45 = call i32 (i32, i64, ...) @ioctl(i32 noundef %0, i64 noundef 3224655435, ptr noundef nonnull %8) #11
  %46 = icmp eq i32 %45, 0
  br i1 %46, label %17, label %.critedge, !llvm.loop !16

.critedge:                                        ; preds = %20, %44, %36, %38, %7, %29
  %.2 = phi i1 [ true, %29 ], [ true, %7 ], [ %37, %38 ], [ %37, %36 ], [ false, %20 ], [ true, %44 ]
  call void @llvm.lifetime.end.p0(i64 52, ptr nonnull %8) #11
  ret i1 %.2
}